target datalayout = "e-m:e-p270:32:32-p271:32:32-p272:64:64-i64:64-i128:128-f80:128-n8:16:32:64-S128"
target triple = "x86_64-pc-linux-gnu"

%struct.Vec_Ptr_t_ = type { i32, i32, ptr }

; Function Attrs: inlinehint nounwind uwtable
define internal ptr @Vec_PtrAlloc(i32 noundef %0) #2 {
  %2 = alloca i32, align 4
  %3 = alloca ptr, align 8
  store i32 %0, ptr %2, align 4, !tbaa !3
  call void @llvm.lifetime.start.p0(i64 8, ptr %3) #8
  %4 = call noalias ptr @malloc(i64 noundef 16) #9
  store ptr %4, ptr %3, align 8, !tbaa !7
  %5 = load i32, ptr %2, align 4, !tbaa !3
  %6 = icmp sgt i32 %5, 0
  br i1 %6, label %7, label %11

7:                                                ; preds = %1
  %8 = load i32, ptr %2, align 4, !tbaa !3
  %9 = icmp slt i32 %8, 8
  br i1 %9, label %10, label %11

10:                                               ; preds = %7
  store i32 8, ptr %2, align 4, !tbaa !3
  br label %11

11:                                               ; preds = %10, %7, %1
  %12 = load ptr, ptr %3, align 8, !tbaa !7
  %13 = getelementptr inbounds nuw %struct.Vec_Ptr_t_, ptr %12, i32 0, i32 1
  store i32 0, ptr %13, align 4, !tbaa !15
  %14 = load i32, ptr %2, align 4, !tbaa !3
  %15 = load ptr, ptr %3, align 8, !tbaa !7
  %16 = getelementptr inbounds nuw %struct.Vec_Ptr_t_, ptr %15, i32 0, i32 0
  store i32 %14, ptr %16, align 8, !tbaa !16
  %17 = load ptr, ptr %3, align 8, !tbaa !7
  %18 = getelementptr inbounds nuw %struct.Vec_Ptr_t_, ptr %17, i32 0, i32 0
  %19 = load i32, ptr %18, align 8, !tbaa !16
  %20 = icmp ne i32 %19, 0
  br i1 %20, label %21, label %28

21:                                               ; preds = %11
  %22 = load ptr, ptr %3, align 8, !tbaa !7
  %23 = getelementptr inbounds nuw %struct.Vec_Ptr_t_, ptr %22, i32 0, i32 0
  %24 = load i32, ptr %23, align 8, !tbaa !16
  %25 = sext i32 %24 to i64
  %26 = mul i64 8, %25
  %27 = call noalias ptr @malloc(i64 noundef %26) #9
  br label %29

28:                                               ; preds = %11
  br label %29

29:                                               ; preds = %28, %21
  %30 = phi ptr [ %27, %21 ], [ null, %28 ]
  %31 = load ptr, ptr %3, align 8, !tbaa !7
  %32 = getelementptr inbounds nuw %struct.Vec_Ptr_t_, ptr %31, i32 0, i32 2
  store ptr %30, ptr %32, align 8, !tbaa !10
  %33 = load ptr, ptr %3, align 8, !tbaa !7
  call void @llvm.lifetime.end.p0(i64 8, ptr %3) #8
  ret ptr %33
}

; Function Attrs: nounwind uwtable
define ptr @Sim_UtilInfoAlloc(i32 noundef %0, i32 noundef %1, i32 noundef %2) #0 {
  %4 = alloca i32, align 4
  %5 = alloca i32, align 4
  %6 = alloca i32, align 4
  %7 = alloca ptr, align 8
  %8 = alloca i32, align 4
  store i32 %0, ptr %4, align 4, !tbaa !3
  store i32 %1, ptr %5, align 4, !tbaa !3
  store i32 %2, ptr %6, align 4, !tbaa !3
  call void @llvm.lifetime.start.p0(i64 8, ptr %7) #8
  call void @llvm.lifetime.start.p0(i64 4, ptr %8) #8
  %9 = load i32, ptr %4, align 4, !tbaa !3
  %10 = call ptr @Vec_PtrAlloc(i32 noundef %9)
  store ptr %10, ptr %7, align 8, !tbaa !7
  %11 = load i32, ptr %4, align 4, !tbaa !3
  %12 = sext i32 %11 to i64
  %13 = load i32, ptr %5, align 4, !tbaa !3
  %14 = sext i32 %13 to i64
  %15 = mul nsw i64 %12, %14
  %16 = mul i64 4, %15
  %17 = call noalias ptr @malloc(i64 noundef %16) #9
  %18 = load ptr, ptr %7, align 8, !tbaa !7
  %19 = getelementptr inbounds nuw %struct.Vec_Ptr_t_, ptr %18, i32 0, i32 2
  %20 = load ptr, ptr %19, align 8, !tbaa !10
  %21 = getelementptr inbounds ptr, ptr %20, i64 0
  store ptr %17, ptr %21, align 8, !tbaa !12
  %22 = load i32, ptr %6, align 4, !tbaa !3
  %23 = icmp ne i32 %22, 0
  br i1 %23, label %24, label %36

24:                                               ; preds = %3
  %25 = load ptr, ptr %7, align 8, !tbaa !7
  %26 = getelementptr inbounds nuw %struct.Vec_Ptr_t_, ptr %25, i32 0, i32 2
  %27 = load ptr, ptr %26, align 8, !tbaa !10
  %28 = getelementptr inbounds ptr, ptr %27, i64 0
  %29 = load ptr, ptr %28, align 8, !tbaa !12
  %30 = load i32, ptr %4, align 4, !tbaa !3
  %31 = sext i32 %30 to i64
  %32 = mul i64 4, %31
  %33 = load i32, ptr %5, align 4, !tbaa !3
  %34 = sext i32 %33 to i64
  %35 = mul i64 %32, %34
  call void @llvm.memset.p0.i64(ptr align 1 %29, i8 0, i64 %35, i1 false)
  br label %36

36:                                               ; preds = %24, %3
  store i32 1, ptr %8, align 4, !tbaa !3
  br label %37

37:                                               ; preds = %59, %36
  %38 = load i32, ptr %8, align 4, !tbaa !3
  %39 = load i32, ptr %4, align 4, !tbaa !3
  %40 = icmp slt i32 %38, %39
  br i1 %40, label %41, label %62

41:                                               ; preds = %37
  %42 = load ptr, ptr %7, align 8, !tbaa !7
  %43 = getelementptr inbounds nuw %struct.Vec_Ptr_t_, ptr %42, i32 0, i32 2
  %44 = load ptr, ptr %43, align 8, !tbaa !10
  %45 = load i32, ptr %8, align 4, !tbaa !3
  %46 = sub nsw i32 %45, 1
  %47 = sext i32 %46 to i64
  %48 = getelementptr inbounds ptr, ptr %44, i64 %47
  %49 = load ptr, ptr %48, align 8, !tbaa !12
  %50 = load i32, ptr %5, align 4, !tbaa !3
  %51 = sext i32 %50 to i64
  %52 = getelementptr inbounds i32, ptr %49, i64 %51
  %53 = load ptr, ptr %7, align 8, !tbaa !7
  %54 = getelementptr inbounds nuw %struct.Vec_Ptr_t_, ptr %53, i32 0, i32 2
  %55 = load ptr, ptr %54, align 8, !tbaa !10
  %56 = load i32, ptr %8, align 4, !tbaa !3
  %57 = sext i32 %56 to i64
  %58 = getelementptr inbounds ptr, ptr %55, i64 %57
  store ptr %52, ptr %58, align 8, !tbaa !12
  br label %59

59:                                               ; preds = %41
  %60 = load i32, ptr %8, align 4, !tbaa !3
  %61 = add nsw i32 %60, 1
  store i32 %61, ptr %8, align 4, !tbaa !3
  br label %37, !llvm.loop !13

62:                                               ; preds = %37
  %63 = load i32, ptr %4, align 4, !tbaa !3
  %64 = load ptr, ptr %7, align 8, !tbaa !7
  %65 = getelementptr inbounds nuw %struct.Vec_Ptr_t_, ptr %64, i32 0, i32 1
  store i32 %63, ptr %65, align 4, !tbaa !15
  %66 = load ptr, ptr %7, align 8, !tbaa !7
  call void @llvm.lifetime.end.p0(i64 4, ptr %8) #8
  call void @llvm.lifetime.end.p0(i64 8, ptr %7) #8
  ret ptr %66
}