; Function Attrs: nofree nounwind uwtable
define noalias noundef ptr @Sim_UtilInfoAlloc(i32 noundef %0, i32 noundef %1, i32 noundef %2) local_unnamed_addr #0 {
  %4 = tail call noalias dereferenceable_or_null(16) ptr @malloc(i64 noundef 16) #17
  %5 = add i32 %0, -1
  %or.cond.i = icmp ult i32 %5, 7
  %spec.store.select.i = select i1 %or.cond.i, i32 8, i32 %0
  store i32 %spec.store.select.i, ptr %4, align 8, !tbaa !3
  %.not.i = icmp eq i32 %spec.store.select.i, 0
  br i1 %.not.i, label %Vec_PtrAlloc.exit, label %6

6:                                                ; preds = %3
  %7 = sext i32 %spec.store.select.i to i64
  %8 = shl nsw i64 %7, 3
  %9 = tail call noalias ptr @malloc(i64 noundef %8) #17
  br label %Vec_PtrAlloc.exit

Vec_PtrAlloc.exit:                                ; preds = %3, %6
  %10 = phi ptr [ %9, %6 ], [ null, %3 ]
  %11 = getelementptr inbounds nuw i8, ptr %4, i64 8
  store ptr %10, ptr %11, align 8, !tbaa !9
  %12 = sext i32 %0 to i64
  %13 = sext i32 %1 to i64
  %14 = shl nsw i64 %12, 2
  %15 = mul i64 %14, %13
  %16 = tail call noalias ptr @malloc(i64 noundef %15) #17
  store ptr %16, ptr %10, align 8, !tbaa !10
  %.not = icmp eq i32 %2, 0
  br i1 %.not, label %18, label %17

17:                                               ; preds = %Vec_PtrAlloc.exit
  tail call void @llvm.memset.p0.i64(ptr align 1 %16, i8 0, i64 %15, i1 false)
  br label %18

18:                                               ; preds = %17, %Vec_PtrAlloc.exit
  %19 = icmp sgt i32 %0, 1
  br i1 %19, label %.lr.ph.preheader, label %._crit_edge

.lr.ph.preheader:                                 ; preds = %18
  %wide.trip.count = zext nneg i32 %0 to i64
  %load_initial = load ptr, ptr %10, align 8
  br label %.lr.ph

.lr.ph:                                           ; preds = %.lr.ph.preheader, %.lr.ph
  %store_forwarded = phi ptr [ %load_initial, %.lr.ph.preheader ], [ %21, %.lr.ph ]
  %indvars.iv = phi i64 [ 1, %.lr.ph.preheader ], [ %indvars.iv.next, %.lr.ph ]
  %20 = getelementptr ptr, ptr %10, i64 %indvars.iv
  %21 = getelementptr inbounds i32, ptr %store_forwarded, i64 %13
  store ptr %21, ptr %20, align 8, !tbaa !10
  %indvars.iv.next = add nuw nsw i64 %indvars.iv, 1
  %exitcond.not = icmp eq i64 %indvars.iv.next, %wide.trip.count
  br i1 %exitcond.not, label %._crit_edge, label %.lr.ph, !llvm.loop !11

._crit_edge:                                      ; preds = %.lr.ph, %18
  %22 = getelementptr inbounds nuw i8, ptr %4, i64 4
  store i32 %0, ptr %22, align 4, !tbaa !13
  ret ptr %4
}